Open Watcom Linker Version 2.0 beta May  3 2025 18:23:37
Copyright (c) 2002-2025 The Open Watcom Contributors. All Rights Reserved.
Portions Copyright (c) 1985-2002 Sybase, Inc. All Rights Reserved.
Created on:       25/09/24 21:22:16
Executable Image: EDLIN.exe
creating a DOS executable


                        +------------+
                        |   Groups   |
                        +------------+

Group                           Address              Size
=====                           =======              ====

DGROUP                          054e:0000            000012c0



                        +--------------+
                        |   Segments   |
                        +--------------+

Segment                Class          Group          Address         Size
=======                =====          =====          =======         ====

edlin_config_TEXT      CODE           AUTO           0000:0000       0000022f
edlin_errors_TEXT      CODE           AUTO           0000:022f       0000005d
edlin_file_TEXT        CODE           AUTO           0000:028c       00000707
edlin_parse_TEXT       CODE           AUTO           0000:0993       0000039f
edlin_tokenize_TEXT    CODE           AUTO           0000:0d32       0000055c
main_TEXT              CODE           AUTO           0000:128e       000001a1
_TEXT                  CODE           AUTO           0000:1430       000040ac
FAR_DATA               FAR_DATA       AUTO           054d:000c       00000000
_NULL                  BEGDATA        DGROUP         054e:0000       00000020
_AFTERNULL             BEGDATA        DGROUP         0550:0000       00000002
CONST                  DATA           DGROUP         0550:0002       00000430
CONST2                 DATA           DGROUP         0593:0002       000002f8
_DATA                  DATA           DGROUP         05c2:000a       0000020e
XIB                    DATA           DGROUP         05e3:0008       00000000
XI                     DATA           DGROUP         05e3:0008       0000001e
XIE                    DATA           DGROUP         05e5:0006       00000000
YIB                    DATA           DGROUP         05e5:0006       00000000
YI                     DATA           DGROUP         05e5:0006       00000012
YIE                    DATA           DGROUP         05e6:0008       00000000
DATA                   DATA           DGROUP         05e6:0008       00000000
_BSS                   BSS            DGROUP         05e6:0008       0000012d
STACK                  STACK          DGROUP         05fa:0000       00000800


                        +----------------+
                        |   Memory Map   |
                        +----------------+

* = unreferenced symbol
+ = symbol only referenced locally

Address        Symbol
=======        ======

Module: CMakeFiles/EDLIN.dir/EDLIN/edlin_config.c.obj(/Users/jeremythornton/dosbox/cspjst/edlin/src/EDLIN/edlin_config.c)
0000:0000      edlin_intro_
0000:0033      edlin_usage_
0000:0066      edlin_config_
Module: CMakeFiles/EDLIN.dir/EDLIN/edlin_errors.c.obj(/Users/jeremythornton/dosbox/cspjst/edlin/src/EDLIN/edlin_errors.c)
0000:022f      edlin_panic_
054e:055a+     _EDLIN_ERROR_MESSAGES
Module: CMakeFiles/EDLIN.dir/EDLIN/edlin_file.c.obj(/Users/jeremythornton/dosbox/cspjst/edlin/src/EDLIN/edlin_file.c)
0000:028c      edlin_new_file_
0000:0375+     edlin_free_file_
0000:0437+     edlin_yesno_
0000:04df+     edlin_new_line_
0000:054f      edlin_read_line_
0000:05da      edlin_trim_line_
0000:06d5+     edlin_is_file_full_
0000:0747      edlin_load_file_
0000:08e8+     edlin_print_file_
Module: CMakeFiles/EDLIN.dir/EDLIN/edlin_parse.c.obj(/Users/jeremythornton/dosbox/cspjst/edlin/src/EDLIN/edlin_parse.c)
0000:0993+     edlin_dispatch_command_
0000:09ee+     edlin_command_dispatcher_
0000:0a1a+     edlin_handle_edit_
0000:0a46+     edlin_handle_help_
0000:0a72+     edlin_handle_end_
0000:0a9e+     edlin_handle_quit_
0000:0aca+     edlin_handle_append_
0000:0af6+     edlin_handle_copy_
0000:0b22+     edlin_handle_delete_
0000:0b4e+     edlin_handle_insert_
0000:0b7a+     edlin_handle_list_
0000:0ba6+     edlin_handle_move_
0000:0bd2+     edlin_handle_page_
0000:0bfe+     edlin_handle_write_
0000:0c2a+     edlin_handle_replace_
0000:0c56+     edlin_handle_search_
0000:0c82+     edlin_handle_transfer_
0000:0cae+     edlin_handle_error_
0000:0cda+     edlin_handle_empty_
0000:0d06+     edlin_handle_unknown_
Module: CMakeFiles/EDLIN.dir/EDLIN/edlin_tokenize.c.obj(/Users/jeremythornton/dosbox/cspjst/edlin/src/EDLIN/edlin_tokenize.c)
0000:0d32      edlin_help_
0000:0d72+     is_tokenize_no_args_
0000:0e02+     is_tokenize_args_
0000:0f62+     is_tokenize_query_
0000:1104+     do_tokenize_digits_
0000:117f      edlin_tokenize_
Module: CMakeFiles/EDLIN.dir/main.c.obj(/Users/jeremythornton/dosbox/cspjst/edlin/src/main.c)
0000:128e      main_
Module: /opt/watcom/lib286/dos/clibl.lib(stk)
0000:1435      __STK
0000:1455*     __STKOVERFLOW_
Module: /opt/watcom/lib286/dos/clibl.lib(printf)
0000:1472      printf_
Module: /opt/watcom/lib286/dos/clibl.lib(atoi)
0000:1493      atoi_
Module: /opt/watcom/lib286/dos/clibl.lib(cmodel)
0000:1504      _big_code_
0000:1504*     CodeModelMismatch
Module: /opt/watcom/lib286/dos/clibl.lib(fmalloc)
0000:1504      _fmalloc_
0000:1504      malloc_
054e:074c+     ___fheapbeg
054e:074e      ___fheapRover
054e:0750      ___LargestSizeB4Rover
Module: /opt/watcom/lib286/dos/clibl.lib(calloc)
0000:1614      calloc_
Module: /opt/watcom/lib286/dos/clibl.lib(ffree)
0000:1653      _ffree_
0000:1653      free_
Module: /opt/watcom/lib286/dos/clibl.lib(strcpy)
0000:169b      strcpy_
Module: /opt/watcom/lib286/dos/clibl.lib(iob)
054e:0752      ___iob
054e:0988      ___OpenStreams
054e:098c      ___ClosedStreams
Module: /opt/watcom/lib286/dos/clibl.lib(fflush)
0000:16e6      fflush_
Module: /opt/watcom/lib286/dos/clibl.lib(fgetc)
0000:16fb+     __fill_buffer_
0000:17f0      fgetc_
Module: /opt/watcom/lib286/dos/clibl.lib(toupper)
0000:189a      toupper_
Module: /opt/watcom/lib286/dos/clibl.lib(fgets)
0000:18a8      fgets_
Module: /opt/watcom/lib286/dos/clibl.lib(istable)
054e:0640      __IsTable
Module: /opt/watcom/lib286/dos/clibl.lib(strcspn)
0000:1937      strcspn_
Module: /opt/watcom/lib286/dos/clibl.lib(memmove)
0000:198c      memmove_
Module: /opt/watcom/lib286/dos/clibl.lib(fopen)
0000:1a02+     __open_flags_
0000:1c04+     _fsopen_
0000:1c68      fopen_
0000:1d40*     freopen_
Module: /opt/watcom/lib286/dos/clibl.lib(fclose)
0000:1dad      __doclose_
0000:1e71      __shutdown_stream_
0000:1e8b      fclose_
054e:0990+     ___RmTmpFileFn
Module: /opt/watcom/lib286/dos/clibl.lib(strtok)
0000:1ed6+     strtok_r_
0000:1fad      strtok_
Module: /opt/watcom/lib286/dos/clibl.lib(memset)
0000:1fbc      memset_
Module: /opt/watcom/lib286/dos/clibl.lib(cstart)
054e:0000*     __nullarea
054e:08be*     __ovlflag
054e:08bf*     __intno
054e:08c0*     __ovlvec
0000:1fd4      _cstart_
0000:2185      __exit_
0000:21a2      __do_exit_with_msg_
0000:2281      __GETDS
Module: /opt/watcom/lib286/dos/clibl.lib(argcv)
054e:0994      __argv
054e:0998      ___argv
054e:099c      __argc
054e:099e      ___argc
Module: /opt/watcom/lib286/dos/clibl.lib(xmsg)
0000:228b*     __exit_with_msg_
0000:2290      __fatal_runtime_error_
Module: /opt/watcom/lib286/dos/clibl.lib(crwdata)
054e:08c4      __curbrk
054e:08cc      __STACKLOW
054e:08ce      __STACKTOP
054e:08d0      __cbyte
054e:08d2      __child
054e:08d4      __no87
054e:08e1      ___FPE_handler
054e:08c6      __psp
054e:08d5      __get_ovl_stack
054e:08d9      __restore_ovl_stack
054e:08dd      __close_ovl_file
054e:08e5      __LpCmdLine
054e:08e9      __LpPgmName
054e:08c8      __osmajor
054e:08c9      __osminor
054e:08ca      __osmode
054e:08cb      __HShift
Module: /opt/watcom/lib286/dos/clibl.lib(fprtf)
0000:22c6      __fprtf_
Module: /opt/watcom/lib286/dos/clibl.lib(mem)
0000:23a0      __MemAllocator
0000:2466      __MemFree
Module: /opt/watcom/lib286/dos/clibl.lib(growseg)
0000:25dd      __GrowSeg_
Module: /opt/watcom/lib286/dos/clibl.lib(allocseg)
0000:26ac      __AllocSeg_
Module: /opt/watcom/lib286/dos/clibl.lib(fmemneed)
0000:274b      __fmemneed_
Module: /opt/watcom/lib286/dos/clibl.lib(nmalloc)
0000:274e      _nmalloc_
054e:08ee      ___nheapbeg
054e:08f0      ___MiniHeapRover
054e:08f2      ___LargestSizeB4MiniHeapRover
Module: /opt/watcom/lib286/dos/clibl.lib(heapgrow)
0000:2825*     _heapgrow_
0000:2825*     _fheapgrow_
0000:2826      _nheapgrow_
Module: /opt/watcom/lib286/dos/clibl.lib(i4m)
0000:289e*     __I4M
0000:289e      __U4M
Module: /opt/watcom/lib286/dos/clibl.lib(nfree)
0000:28b6      _nfree_
054e:09a0+     ___MiniHeapFreeRover
Module: /opt/watcom/lib286/dos/clibl.lib(initfile)
0000:29b3      __InitFiles_
Module: /opt/watcom/lib286/dos/clibl.lib(ioexit)
0000:2b0e*     fcloseall_
0000:2b15      __full_io_exit_
Module: /opt/watcom/lib286/dos/clibl.lib(flushall)
0000:2b1f      __flushall_
0000:2b7c      flushall_
Module: /opt/watcom/lib286/dos/clibl.lib(flush)
0000:2b81      __flush_
Module: /opt/watcom/lib286/dos/clibl.lib(gtche)
0000:2cb9      getche_
Module: /opt/watcom/lib286/dos/clibl.lib(ioalloc)
0000:2cd3      __ioalloc_
Module: /opt/watcom/lib286/dos/clibl.lib(qread)
0000:2d6d      __qread_
Module: /opt/watcom/lib286/dos/clibl.lib(errno)
0000:2d8d      __get_errno_ptr_
054e:09a2+     _errno
Module: /opt/watcom/lib286/dos/clibl.lib(setbits)
0000:2d94      __setbits_
Module: /opt/watcom/lib286/dos/clibl.lib(bits)
054e:0742      __Bits
Module: /opt/watcom/lib286/dos/clibl.lib(comtflag)
0000:2de8*     __set_commode_
054e:08f4      __commode
Module: /opt/watcom/lib286/dos/clibl.lib(textmode)
054e:08f6      __fmode
Module: /opt/watcom/lib286/dos/clibl.lib(tolower)
0000:2df4      tolower_
Module: /opt/watcom/lib286/dos/clibl.lib(open)
0000:2ffe*     open_
0000:3025      _sopen_
Module: /opt/watcom/lib286/dos/clibl.lib(fseek)
0000:30af      fseek_
Module: /opt/watcom/lib286/dos/clibl.lib(chktty)
0000:3217      __chktty_
Module: /opt/watcom/lib286/dos/clibl.lib(freefp)
0000:3242      __freefp_
0000:32b7      __purgefp_
Module: /opt/watcom/lib286/dos/clibl.lib(allocfp)
0000:32f3      __allocfp_
Module: /opt/watcom/lib286/dos/clibl.lib(__lseek)
0000:3409      __lseek_
Module: /opt/watcom/lib286/dos/clibl.lib(_clse)
0000:3443      __close_
Module: /opt/watcom/lib286/dos/clibl.lib(cmain086)
0000:347b      __CMain
Module: /opt/watcom/lib286/dos/clibl.lib(initrtns)
0000:34cd      __InitRtns
0000:34cd*     __FInitRtns
0000:3524      __FiniRtns
0000:3524*     __FFiniRtns
Module: /opt/watcom/lib286/dos/clibl.lib(uselfn)
054e:08f8      ___uselfn
Module: /opt/watcom/lib286/dos/clibl.lib(dosseg)
0000:3584      __DOSseg__
Module: /opt/watcom/lib286/dos/clibl.lib(initargv)
0000:3780      __Init_Argv_
0000:37e2      __Fini_Argv_
Module: /opt/watcom/lib286/dos/clibl.lib(enterdb)
0000:380c      __EnterWVIDEO_
054e:08fa+     __WD_Present
Module: /opt/watcom/lib286/dos/clibl.lib(fputc)
0000:3830      fputc_
Module: /opt/watcom/lib286/dos/clibl.lib(prtf)
0000:4458      __prtf_
Module: /opt/watcom/lib286/dos/clibl.lib(heapen)
0000:4690*     _heapenable_
054e:08fc      ___heap_enabled
Module: /opt/watcom/lib286/dos/clibl.lib(amblksiz)
054e:08fe      __amblksiz
Module: /opt/watcom/lib286/dos/clibl.lib(nmemneed)
0000:46a1      __nmemneed_
Module: /opt/watcom/lib286/dos/clibl.lib(grownear)
0000:4723      __LastFree_
0000:479b      __ExpandDGROUP_
Module: /opt/watcom/lib286/dos/clibl.lib(qwrit)
0000:48a0      __qwrite_
Module: /opt/watcom/lib286/dos/clibl.lib(fsync)
0000:4902      fsync_
Module: /opt/watcom/lib286/dos/clibl.lib(dosret)
0000:4907      __set_errno_dos_
0000:4993*     __set_errno_dos_reterr_
Module: /opt/watcom/lib286/dos/clibl.lib(opendos)
0000:499e      _dos_open_
Module: /opt/watcom/lib286/dos/clibl.lib(iomode)
0000:49c4      __GetIOMode_
0000:49e9      __SetIOMode_nogrow_
054e:0914      ___NFiles
054e:0916      ___init_mode
054e:093e      ___io_mode
Module: /opt/watcom/lib286/dos/clibl.lib(isatt)
0000:4a0c      isatty_
Module: /opt/watcom/lib286/dos/clibl.lib(doserrno)
0000:4a28      __get_doserrno_ptr_
054e:09a8+     __doserrno
Module: /opt/watcom/lib286/dos/clibl.lib(umaskval)
054e:0942      ___umaskval
Module: /opt/watcom/lib286/dos/clibl.lib(creatdos)
0000:4a2f      _dos_creat_
0000:4a53*     _dos_creatnew_
Module: /opt/watcom/lib286/dos/clibl.lib(stiomode)
0000:4a74+     __grow_iomode_
0000:4b3a+     __shrink_iomode_
0000:4b75      __SetIOMode_
Module: /opt/watcom/lib286/dos/clibl.lib(lseek)
0000:4bd8      lseek_
Module: /opt/watcom/lib286/dos/clibl.lib(tell)
0000:4c09      _tell_
Module: /opt/watcom/lib286/dos/clibl.lib(___argc)
054e:09ac      ____Argv
054e:09b0      ____Argc
Module: /opt/watcom/lib286/dos/clibl.lib(exit)
0000:4c1a+     __null_int23_exit_
0000:4c1b      exit_
0000:4c4a*     _exit_
054e:0944+     ___int23_exit
054e:0948+     ___FPE_handler_exit
Module: /opt/watcom/lib286/dos/clibl.lib(sgdef086)
054e:0958      __Start_XI
054e:0976      __End_XI
054e:0976      __Start_YI
054e:0988      __End_YI
Module: /opt/watcom/lib286/dos/clibl.lib(histsplt)
054e:09b2      ___historical_splitparms
Module: /opt/watcom/lib286/dos/clibl.lib(wctomb)
0000:4c62      wctomb_
Module: /opt/watcom/lib286/dos/clibl.lib(itoa)
0000:4c8b+     utoa_
0000:4ce8      itoa_
Module: /opt/watcom/lib286/dos/clibl.lib(noefgfmt)
054e:094c      ___EFG_printf
054e:0950*     ___EFG_scanf
Module: /opt/watcom/lib286/dos/clibl.lib(lltoa)
0000:4d1c      ulltoa_
0000:4e00*     lltoa_
Module: /opt/watcom/lib286/dos/clibl.lib(strupr)
0000:4e62      _strupr_
Module: /opt/watcom/lib286/dos/clibl.lib(ltoa)
0000:4e84      ultoa_
0000:4ef3*     ltoa_
Module: /opt/watcom/lib286/dos/clibl.lib(mbisdbcs)
054e:0954      ___IsDBCS
Module: /opt/watcom/lib286/dos/clibl.lib(mbislead)
0000:4f22*     _ismbblead_
054e:09b4      ___MBCSIsTable
Module: /opt/watcom/lib286/dos/clibl.lib(sbrk)
0000:4f3e      __brk_
0000:4fa3*     sbrk_
Module: /opt/watcom/lib286/dos/clibl.lib(filedos)
0000:4fb3*     _dos_close_
0000:4fc1      _dos_commit_
Module: /opt/watcom/lib286/dos/clibl.lib(doserror)
0000:4fd0      __doserror_
0000:4fde*     __doserror1_
Module: /opt/watcom/lib286/dos/clibl.lib(frealloc)
0000:4fea*     _frealloc_
0000:4fea      realloc_
Module: /opt/watcom/lib286/dos/clibl.lib(iomodtty)
0000:50c2      __ChkTTYIOMode_
0000:5100*     __IOMode_
Module: /opt/watcom/lib286/dos/clibl.lib(alphabet)
0000:5110      ___Alphabet
Module: /opt/watcom/lib286/dos/clibl.lib(mbinit)
0000:519a      __mbinit_
054e:0956+     ___MBCodePage
Module: /opt/watcom/lib286/dos/clibl.lib(fmsize)
0000:520f*     _msize_
0000:520f      _fmsize_
Module: /opt/watcom/lib286/dos/clibl.lib(nexpand)
0000:5220      _nexpand_
Module: /opt/watcom/lib286/dos/clibl.lib(fexpand)
0000:5270      _fexpand_
0000:5270*     _expand_
Module: /opt/watcom/lib286/dos/clibl.lib(getltdos)
0000:52a5      dos_get_dbcs_lead_table_
Module: /opt/watcom/lib286/dos/clibl.lib(getcpdos)
0000:52ce      dos_get_code_page_
Module: /opt/watcom/lib286/dos/clibl.lib(_expand)
0000:52de      __HeapManager_expand_
Module: /opt/watcom/lib286/dos/clibl.lib(bexpand)
0000:545e      _bexpand_
Module: /opt/watcom/lib286/dos/clibl.lib(bfree)
0000:54b7      _bfree_


                        +--------------------+
                        |   Libraries Used   |
                        +--------------------+

/opt/watcom/lib286/dos/clibl.lib


                        +-----------------------+
                        |   Linker Statistics   |
                        +-----------------------+

Stack size:  0800 (2048.)
Memory size:  67a0 (26528.)
Entry point address: 0000:1fd4
Link time: 00:00.27
